target datalayout = "e-m:e-p270:32:32-p271:32:32-p272:64:64-i64:64-i128:128-f80:128-n8:16:32:64-S128"
target triple = "x86_64-pc-linux-gnu"

; Function Attrs: nounwind uwtable
define internal i32 @string_to_size(ptr noundef %0, ptr noundef %1) #0 {
  %3 = alloca i32, align 4
  %4 = alloca ptr, align 8
  %5 = alloca ptr, align 8
  %6 = alloca i64, align 8
  %7 = alloca ptr, align 8
  %8 = alloca i32, align 4
  %9 = alloca i32, align 4
  store ptr %0, ptr %4, align 8, !tbaa !53
  store ptr %1, ptr %5, align 8, !tbaa !59
  call void @llvm.lifetime.start.p0(i64 8, ptr %6) #8
  call void @llvm.lifetime.start.p0(i64 8, ptr %7) #8
  call void @llvm.lifetime.start.p0(i64 4, ptr %8) #8
  store i32 0, ptr %8, align 4, !tbaa !13
  %10 = load ptr, ptr %4, align 8, !tbaa !53
  %11 = icmp eq ptr %10, null
  br i1 %11, label %22, label %12

12:                                               ; preds = %2
  %13 = load ptr, ptr %4, align 8, !tbaa !53
  %14 = load i8, ptr %13, align 1, !tbaa !61
  %15 = sext i8 %14 to i32
  %16 = icmp eq i32 %15, 0
  br i1 %16, label %22, label %17

17:                                               ; preds = %12
  %18 = load ptr, ptr %4, align 8, !tbaa !53
  %19 = load i8, ptr %18, align 1, !tbaa !61
  %20 = sext i8 %19 to i32
  %21 = icmp eq i32 %20, 45
  br i1 %21, label %22, label %23

22:                                               ; preds = %17, %12, %2
  store i32 -20, ptr %3, align 4
  store i32 1, ptr %9, align 4
  br label %111

23:                                               ; preds = %17
  %24 = load ptr, ptr %4, align 8, !tbaa !53
  %25 = call i64 @strtoumax(ptr noundef %24, ptr noundef %7, i32 noundef 10) #8
  store i64 %25, ptr %6, align 8, !tbaa !43
  %26 = load ptr, ptr %7, align 8, !tbaa !53
  %27 = load ptr, ptr %4, align 8, !tbaa !53
  %28 = icmp ugt ptr %26, %27
  br i1 %28, label %29, label %84

29:                                               ; preds = %23
  %30 = load ptr, ptr %7, align 8, !tbaa !53
  %31 = load i8, ptr %30, align 1, !tbaa !61
  %32 = sext i8 %31 to i32
  %33 = icmp eq i32 %32, 75
  br i1 %33, label %39, label %34

34:                                               ; preds = %29
  %35 = load ptr, ptr %7, align 8, !tbaa !53
  %36 = load i8, ptr %35, align 1, !tbaa !61
  %37 = sext i8 %36 to i32
  %38 = icmp eq i32 %37, 107
  br i1 %38, label %39, label %42

39:                                               ; preds = %34, %29
  store i32 10, ptr %8, align 4, !tbaa !13
  %40 = load ptr, ptr %7, align 8, !tbaa !53
  %41 = getelementptr inbounds nuw i8, ptr %40, i32 1
  store ptr %41, ptr %7, align 8, !tbaa !53
  br label %70

42:                                               ; preds = %34
  %43 = load ptr, ptr %7, align 8, !tbaa !53
  %44 = load i8, ptr %43, align 1, !tbaa !61
  %45 = sext i8 %44 to i32
  %46 = icmp eq i32 %45, 77
  br i1 %46, label %52, label %47

47:                                               ; preds = %42
  %48 = load ptr, ptr %7, align 8, !tbaa !53
  %49 = load i8, ptr %48, align 1, !tbaa !61
  %50 = sext i8 %49 to i32
  %51 = icmp eq i32 %50, 109
  br i1 %51, label %52, label %55

52:                                               ; preds = %47, %42
  store i32 20, ptr %8, align 4, !tbaa !13
  %53 = load ptr, ptr %7, align 8, !tbaa !53
  %54 = getelementptr inbounds nuw i8, ptr %53, i32 1
  store ptr %54, ptr %7, align 8, !tbaa !53
  br label %69

55:                                               ; preds = %47
  %56 = load ptr, ptr %7, align 8, !tbaa !53
  %57 = load i8, ptr %56, align 1, !tbaa !61
  %58 = sext i8 %57 to i32
  %59 = icmp eq i32 %58, 71
  br i1 %59, label %65, label %60

60:                                               ; preds = %55
  %61 = load ptr, ptr %7, align 8, !tbaa !53
  %62 = load i8, ptr %61, align 1, !tbaa !61
  %63 = sext i8 %62 to i32
  %64 = icmp eq i32 %63, 103
  br i1 %64, label %65, label %68

65:                                               ; preds = %60, %55
  store i32 30, ptr %8, align 4, !tbaa !13
  %66 = load ptr, ptr %7, align 8, !tbaa !53
  %67 = getelementptr inbounds nuw i8, ptr %66, i32 1
  store ptr %67, ptr %7, align 8, !tbaa !53
  br label %68

68:                                               ; preds = %65, %60
  br label %69

69:                                               ; preds = %68, %52
  br label %70

70:                                               ; preds = %69, %39
  %71 = load ptr, ptr %7, align 8, !tbaa !53
  %72 = load i8, ptr %71, align 1, !tbaa !61
  %73 = sext i8 %72 to i32
  %74 = icmp eq i32 %73, 66
  br i1 %74, label %80, label %75

75:                                               ; preds = %70
  %76 = load ptr, ptr %7, align 8, !tbaa !53
  %77 = load i8, ptr %76, align 1, !tbaa !61
  %78 = sext i8 %77 to i32
  %79 = icmp eq i32 %78, 98
  br i1 %79, label %80, label %83

80:                                               ; preds = %75, %70
  %81 = load ptr, ptr %7, align 8, !tbaa !53
  %82 = getelementptr inbounds nuw i8, ptr %81, i32 1
  store ptr %82, ptr %7, align 8, !tbaa !53
  br label %83

83:                                               ; preds = %80, %75
  br label %84

84:                                               ; preds = %83, %23
  %85 = load ptr, ptr %7, align 8, !tbaa !53
  %86 = load ptr, ptr %4, align 8, !tbaa !53
  %87 = icmp eq ptr %85, %86
  br i1 %87, label %97, label %88

88:                                               ; preds = %84
  %89 = load ptr, ptr %7, align 8, !tbaa !53
  %90 = load i8, ptr %89, align 1, !tbaa !61
  %91 = sext i8 %90 to i32
  %92 = icmp ne i32 %91, 0
  br i1 %92, label %97, label %93

93:                                               ; preds = %88
  %94 = call ptr @__errno_location() #12
  %95 = load i32, ptr %94, align 4, !tbaa !13
  %96 = icmp eq i32 %95, 75
  br i1 %96, label %97, label %98

97:                                               ; preds = %93, %88, %84
  store i32 -20, ptr %3, align 4
  store i32 1, ptr %9, align 4
  br label %111

98:                                               ; preds = %93
  %99 = load i64, ptr %6, align 8, !tbaa !43
  %100 = load i32, ptr %8, align 4, !tbaa !13
  %101 = zext i32 %100 to i64
  %102 = lshr i64 -1, %101
  %103 = icmp ugt i64 %99, %102
  br i1 %103, label %104, label %105

104:                                              ; preds = %98
  store i32 -20, ptr %3, align 4
  store i32 1, ptr %9, align 4
  br label %111

105:                                              ; preds = %98
  %106 = load i64, ptr %6, align 8, !tbaa !43
  %107 = load i32, ptr %8, align 4, !tbaa !13
  %108 = zext i32 %107 to i64
  %109 = shl i64 %106, %108
  %110 = load ptr, ptr %5, align 8, !tbaa !59
  store i64 %109, ptr %110, align 8, !tbaa !43
  store i32 0, ptr %3, align 4
  store i32 1, ptr %9, align 4
  br label %111

111:                                              ; preds = %105, %104, %97, %22
  call void @llvm.lifetime.end.p0(i64 4, ptr %8) #8
  call void @llvm.lifetime.end.p0(i64 8, ptr %7) #8
  call void @llvm.lifetime.end.p0(i64 8, ptr %6) #8
  %112 = load i32, ptr %3, align 4
  ret i32 %112
}