; Function Attrs: nounwind uwtable
define internal fastcc range(i32 -20, 1) i32 @string_to_size(ptr noundef %0, ptr noundef writeonly captures(none) %1) unnamed_addr #0 {
  %3 = alloca ptr, align 8
  call void @llvm.lifetime.start.p0(i64 8, ptr nonnull %3) #10
  %4 = icmp eq ptr %0, null
  br i1 %4, label %36, label %5

5:                                                ; preds = %2
  %6 = load i8, ptr %0, align 1, !tbaa !40
  switch i8 %6, label %7 [
    i8 0, label %36
    i8 45, label %36
  ]

7:                                                ; preds = %5
  %8 = call i64 @strtoumax(ptr noundef nonnull %0, ptr noundef nonnull %3, i32 noundef 10) #10
  %9 = load ptr, ptr %3, align 8, !tbaa !41
  %10 = icmp ugt ptr %9, %0
  br i1 %10, label %11, label %21

11:                                               ; preds = %7
  %12 = load i8, ptr %9, align 1, !tbaa !40
  switch i8 %12, label %16 [
    i8 75, label %thread-pre-split
    i8 107, label %thread-pre-split
    i8 77, label %13
    i8 109, label %13
    i8 71, label %14
    i8 103, label %14
  ]

13:                                               ; preds = %11, %11
  br label %thread-pre-split

14:                                               ; preds = %11, %11
  br label %thread-pre-split

thread-pre-split:                                 ; preds = %11, %11, %14, %13
  %.1.ph = phi i32 [ 30, %14 ], [ 20, %13 ], [ 10, %11 ], [ 10, %11 ]
  %15 = getelementptr inbounds nuw i8, ptr %9, i64 1
  store ptr %15, ptr %3, align 8, !tbaa !41
  %.pr = load i8, ptr %15, align 1, !tbaa !40
  br label %16

16:                                               ; preds = %thread-pre-split, %11
  %17 = phi i8 [ %.pr, %thread-pre-split ], [ %12, %11 ]
  %18 = phi ptr [ %15, %thread-pre-split ], [ %9, %11 ]
  %.1 = phi i32 [ %.1.ph, %thread-pre-split ], [ 0, %11 ]
  switch i8 %17, label %21 [
    i8 66, label %19
    i8 98, label %19
  ]

19:                                               ; preds = %16, %16
  %20 = getelementptr inbounds nuw i8, ptr %18, i64 1
  store ptr %20, ptr %3, align 8, !tbaa !41
  br label %21

21:                                               ; preds = %16, %19, %7
  %22 = phi ptr [ %20, %19 ], [ %9, %7 ], [ %18, %16 ]
  %.0 = phi i32 [ %.1, %19 ], [ 0, %7 ], [ %.1, %16 ]
  %23 = icmp eq ptr %22, %0
  br i1 %23, label %36, label %24

24:                                               ; preds = %21
  %25 = load i8, ptr %22, align 1, !tbaa !40
  %.not = icmp eq i8 %25, 0
  br i1 %.not, label %26, label %36

26:                                               ; preds = %24
  %27 = tail call ptr @__errno_location() #14
  %28 = load i32, ptr %27, align 4, !tbaa !42
  %29 = icmp eq i32 %28, 75
  br i1 %29, label %36, label %30

30:                                               ; preds = %26
  %31 = zext nneg i32 %.0 to i64
  %32 = lshr i64 -1, %31
  %33 = icmp ugt i64 %8, %32
  br i1 %33, label %36, label %34

34:                                               ; preds = %30
  %35 = shl i64 %8, %31
  store i64 %35, ptr %1, align 8, !tbaa !44
  br label %36

36:                                               ; preds = %30, %21, %24, %26, %2, %5, %5, %34
  %.011 = phi i32 [ 0, %34 ], [ -20, %5 ], [ -20, %5 ], [ -20, %2 ], [ -20, %26 ], [ -20, %24 ], [ -20, %21 ], [ -20, %30 ]
  call void @llvm.lifetime.end.p0(i64 8, ptr nonnull %3) #10
  ret i32 %.011
}